; ModuleID = '58/239.c'
source_filename = "58/239.c"
target datalayout = "e-m:e-p270:32:32-p271:32:32-p272:64:64-i64:64-f80:128-n8:16:32:64-S128"
target triple = "x86_64-pc-linux-gnu"

@.str = private unnamed_addr constant [3 x i8] c"0\0A\00", align 1
@.str.1 = private unnamed_addr constant [3 x i8] c"1\0A\00", align 1

; Function Attrs: noinline nounwind uwtable
define dso_local i32 @main() #0 {
  %1 = alloca i32, align 4
  %2 = alloca i32, align 4
  %3 = alloca i32, align 4
  %4 = alloca i32, align 4
  %5 = alloca [200 x i32], align 16
  %6 = alloca [200 x i32], align 16
  %7 = alloca [200 x [85 x i8]], align 16
  %8 = alloca [5 x i8], align 1
  store i32 0, i32* %1, align 4
  %9 = bitcast [200 x i32]* %5 to i8*
  call void @llvm.memset.p0i8.i64(i8* align 16 %9, i8 0, i64 800, i1 false)
  %10 = getelementptr inbounds [5 x i8], [5 x i8]* %8, i64 0, i64 0
  %11 = call i32 (i8*, ...) bitcast (i32 (...)* @gets to i32 (i8*, ...)*)(i8* %10)
  %12 = getelementptr inbounds [5 x i8], [5 x i8]* %8, i64 0, i64 0
  %13 = call i32 @atoi(i8* %12) #4
  store i32 %13, i32* %2, align 4
  store i32 0, i32* %3, align 4
  br label %14

14:                                               ; preds = %24, %0
  %15 = load i32, i32* %3, align 4
  %16 = load i32, i32* %2, align 4
  %17 = icmp slt i32 %15, %16
  br i1 %17, label %18, label %27

18:                                               ; preds = %14
  %19 = load i32, i32* %3, align 4
  %20 = sext i32 %19 to i64
  %21 = getelementptr inbounds [200 x [85 x i8]], [200 x [85 x i8]]* %7, i64 0, i64 %20
  %22 = getelementptr inbounds [85 x i8], [85 x i8]* %21, i64 0, i64 0
  %23 = call i32 (i8*, ...) bitcast (i32 (...)* @gets to i32 (i8*, ...)*)(i8* %22)
  br label %24

24:                                               ; preds = %18
  %25 = load i32, i32* %3, align 4
  %26 = add nsw i32 %25, 1
  store i32 %26, i32* %3, align 4
  br label %14

27:                                               ; preds = %14
  store i32 0, i32* %3, align 4
  br label %28

28:                                               ; preds = %216, %27
  %29 = load i32, i32* %3, align 4
  %30 = load i32, i32* %2, align 4
  %31 = icmp slt i32 %29, %30
  br i1 %31, label %32, label %219

32:                                               ; preds = %28
  %33 = load i32, i32* %3, align 4
  %34 = sext i32 %33 to i64
  %35 = getelementptr inbounds [200 x [85 x i8]], [200 x [85 x i8]]* %7, i64 0, i64 %34
  %36 = getelementptr inbounds [85 x i8], [85 x i8]* %35, i64 0, i64 0
  %37 = call i64 @strlen(i8* %36) #4
  %38 = trunc i64 %37 to i32
  %39 = load i32, i32* %3, align 4
  %40 = sext i32 %39 to i64
  %41 = getelementptr inbounds [200 x i32], [200 x i32]* %6, i64 0, i64 %40
  store i32 %38, i32* %41, align 4
  %42 = load i32, i32* %3, align 4
  %43 = sext i32 %42 to i64
  %44 = getelementptr inbounds [200 x [85 x i8]], [200 x [85 x i8]]* %7, i64 0, i64 %43
  %45 = getelementptr inbounds [85 x i8], [85 x i8]* %44, i64 0, i64 0
  %46 = load i8, i8* %45, align 1
  %47 = sext i8 %46 to i32
  %48 = icmp ne i32 %47, 95
  br i1 %48, label %49, label %97

49:                                               ; preds = %32
  %50 = load i32, i32* %3, align 4
  %51 = sext i32 %50 to i64
  %52 = getelementptr inbounds [200 x [85 x i8]], [200 x [85 x i8]]* %7, i64 0, i64 %51
  %53 = getelementptr inbounds [85 x i8], [85 x i8]* %52, i64 0, i64 0
  %54 = load i8, i8* %53, align 1
  %55 = sext i8 %54 to i32
  %56 = icmp slt i32 %55, 65
  br i1 %56, label %57, label %62

57:                                               ; preds = %49
  %58 = call i32 (i8*, ...) @printf(i8* getelementptr inbounds ([3 x i8], [3 x i8]* @.str, i64 0, i64 0))
  %59 = load i32, i32* %3, align 4
  %60 = sext i32 %59 to i64
  %61 = getelementptr inbounds [200 x i32], [200 x i32]* %5, i64 0, i64 %60
  store i32 1, i32* %61, align 4
  br label %216

62:                                               ; preds = %49
  %63 = load i32, i32* %3, align 4
  %64 = sext i32 %63 to i64
  %65 = getelementptr inbounds [200 x [85 x i8]], [200 x [85 x i8]]* %7, i64 0, i64 %64
  %66 = getelementptr inbounds [85 x i8], [85 x i8]* %65, i64 0, i64 0
  %67 = load i8, i8* %66, align 1
  %68 = sext i8 %67 to i32
  %69 = icmp slt i32 %68, 97
  br i1 %69, label %70, label %83

70:                                               ; preds = %62
  %71 = load i32, i32* %3, align 4
  %72 = sext i32 %71 to i64
  %73 = getelementptr inbounds [200 x [85 x i8]], [200 x [85 x i8]]* %7, i64 0, i64 %72
  %74 = getelementptr inbounds [85 x i8], [85 x i8]* %73, i64 0, i64 0
  %75 = load i8, i8* %74, align 1
  %76 = sext i8 %75 to i32
  %77 = icmp sgt i32 %76, 90
  br i1 %77, label %78, label %83

78:                                               ; preds = %70
  %79 = call i32 (i8*, ...) @printf(i8* getelementptr inbounds ([3 x i8], [3 x i8]* @.str, i64 0, i64 0))
  %80 = load i32, i32* %3, align 4
  %81 = sext i32 %80 to i64
  %82 = getelementptr inbounds [200 x i32], [200 x i32]* %5, i64 0, i64 %81
  store i32 1, i32* %82, align 4
  br label %216

83:                                               ; preds = %70, %62
  %84 = load i32, i32* %3, align 4
  %85 = sext i32 %84 to i64
  %86 = getelementptr inbounds [200 x [85 x i8]], [200 x [85 x i8]]* %7, i64 0, i64 %85
  %87 = getelementptr inbounds [85 x i8], [85 x i8]* %86, i64 0, i64 0
  %88 = load i8, i8* %87, align 1
  %89 = sext i8 %88 to i32
  %90 = icmp sgt i32 %89, 122
  br i1 %90, label %91, label %96

91:                                               ; preds = %83
  %92 = call i32 (i8*, ...) @printf(i8* getelementptr inbounds ([3 x i8], [3 x i8]* @.str, i64 0, i64 0))
  %93 = load i32, i32* %3, align 4
  %94 = sext i32 %93 to i64
  %95 = getelementptr inbounds [200 x i32], [200 x i32]* %5, i64 0, i64 %94
  store i32 1, i32* %95, align 4
  br label %216

96:                                               ; preds = %83
  br label %97

97:                                               ; preds = %96, %32
  store i32 1, i32* %4, align 4
  br label %98

98:                                               ; preds = %204, %97
  %99 = load i32, i32* %4, align 4
  %100 = load i32, i32* %3, align 4
  %101 = sext i32 %100 to i64
  %102 = getelementptr inbounds [200 x i32], [200 x i32]* %6, i64 0, i64 %101
  %103 = load i32, i32* %102, align 4
  %104 = icmp slt i32 %99, %103
  br i1 %104, label %105, label %207

105:                                              ; preds = %98
  %106 = load i32, i32* %3, align 4
  %107 = sext i32 %106 to i64
  %108 = getelementptr inbounds [200 x [85 x i8]], [200 x [85 x i8]]* %7, i64 0, i64 %107
  %109 = load i32, i32* %4, align 4
  %110 = sext i32 %109 to i64
  %111 = getelementptr inbounds [85 x i8], [85 x i8]* %108, i64 0, i64 %110
  %112 = load i8, i8* %111, align 1
  %113 = sext i8 %112 to i32
  %114 = icmp ne i32 %113, 95
  br i1 %114, label %115, label %196

115:                                              ; preds = %105
  %116 = load i32, i32* %3, align 4
  %117 = sext i32 %116 to i64
  %118 = getelementptr inbounds [200 x [85 x i8]], [200 x [85 x i8]]* %7, i64 0, i64 %117
  %119 = load i32, i32* %4, align 4
  %120 = sext i32 %119 to i64
  %121 = getelementptr inbounds [85 x i8], [85 x i8]* %118, i64 0, i64 %120
  %122 = load i8, i8* %121, align 1
  %123 = sext i8 %122 to i32
  %124 = icmp slt i32 %123, 48
  br i1 %124, label %125, label %130

125:                                              ; preds = %115
  %126 = call i32 (i8*, ...) @printf(i8* getelementptr inbounds ([3 x i8], [3 x i8]* @.str, i64 0, i64 0))
  %127 = load i32, i32* %3, align 4
  %128 = sext i32 %127 to i64
  %129 = getelementptr inbounds [200 x i32], [200 x i32]* %5, i64 0, i64 %128
  store i32 1, i32* %129, align 4
  br label %207

130:                                              ; preds = %115
  %131 = load i32, i32* %3, align 4
  %132 = sext i32 %131 to i64
  %133 = getelementptr inbounds [200 x [85 x i8]], [200 x [85 x i8]]* %7, i64 0, i64 %132
  %134 = load i32, i32* %4, align 4
  %135 = sext i32 %134 to i64
  %136 = getelementptr inbounds [85 x i8], [85 x i8]* %133, i64 0, i64 %135
  %137 = load i8, i8* %136, align 1
  %138 = sext i8 %137 to i32
  %139 = icmp sgt i32 %138, 57
  br i1 %139, label %140, label %155

140:                                              ; preds = %130
  %141 = load i32, i32* %3, align 4
  %142 = sext i32 %141 to i64
  %143 = getelementptr inbounds [200 x [85 x i8]], [200 x [85 x i8]]* %7, i64 0, i64 %142
  %144 = load i32, i32* %4, align 4
  %145 = sext i32 %144 to i64
  %146 = getelementptr inbounds [85 x i8], [85 x i8]* %143, i64 0, i64 %145
  %147 = load i8, i8* %146, align 1
  %148 = sext i8 %147 to i32
  %149 = icmp slt i32 %148, 65
  br i1 %149, label %150, label %155

150:                                              ; preds = %140
  %151 = call i32 (i8*, ...) @printf(i8* getelementptr inbounds ([3 x i8], [3 x i8]* @.str, i64 0, i64 0))
  %152 = load i32, i32* %3, align 4
  %153 = sext i32 %152 to i64
  %154 = getelementptr inbounds [200 x i32], [200 x i32]* %5, i64 0, i64 %153
  store i32 1, i32* %154, align 4
  br label %207

155:                                              ; preds = %140, %130
  %156 = load i32, i32* %3, align 4
  %157 = sext i32 %156 to i64
  %158 = getelementptr inbounds [200 x [85 x i8]], [200 x [85 x i8]]* %7, i64 0, i64 %157
  %159 = load i32, i32* %4, align 4
  %160 = sext i32 %159 to i64
  %161 = getelementptr inbounds [85 x i8], [85 x i8]* %158, i64 0, i64 %160
  %162 = load i8, i8* %161, align 1
  %163 = sext i8 %162 to i32
  %164 = icmp slt i32 %163, 97
  br i1 %164, label %165, label %180

165:                                              ; preds = %155
  %166 = load i32, i32* %3, align 4
  %167 = sext i32 %166 to i64
  %168 = getelementptr inbounds [200 x [85 x i8]], [200 x [85 x i8]]* %7, i64 0, i64 %167
  %169 = load i32, i32* %4, align 4
  %170 = sext i32 %169 to i64
  %171 = getelementptr inbounds [85 x i8], [85 x i8]* %168, i64 0, i64 %170
  %172 = load i8, i8* %171, align 1
  %173 = sext i8 %172 to i32
  %174 = icmp sgt i32 %173, 90
  br i1 %174, label %175, label %180

175:                                              ; preds = %165
  %176 = call i32 (i8*, ...) @printf(i8* getelementptr inbounds ([3 x i8], [3 x i8]* @.str, i64 0, i64 0))
  %177 = load i32, i32* %3, align 4
  %178 = sext i32 %177 to i64
  %179 = getelementptr inbounds [200 x i32], [200 x i32]* %5, i64 0, i64 %178
  store i32 1, i32* %179, align 4
  br label %207

180:                                              ; preds = %165, %155
  %181 = load i32, i32* %3, align 4
  %182 = sext i32 %181 to i64
  %183 = getelementptr inbounds [200 x [85 x i8]], [200 x [85 x i8]]* %7, i64 0, i64 %182
  %184 = load i32, i32* %4, align 4
  %185 = sext i32 %184 to i64
  %186 = getelementptr inbounds [85 x i8], [85 x i8]* %183, i64 0, i64 %185
  %187 = load i8, i8* %186, align 1
  %188 = sext i8 %187 to i32
  %189 = icmp sgt i32 %188, 122
  br i1 %189, label %190, label %195

190:                                              ; preds = %180
  %191 = call i32 (i8*, ...) @printf(i8* getelementptr inbounds ([3 x i8], [3 x i8]* @.str, i64 0, i64 0))
  %192 = load i32, i32* %3, align 4
  %193 = sext i32 %192 to i64
  %194 = getelementptr inbounds [200 x i32], [200 x i32]* %5, i64 0, i64 %193
  store i32 1, i32* %194, align 4
  br label %207

195:                                              ; preds = %180
  br label %196

196:                                              ; preds = %195, %105
  %197 = load i32, i32* %3, align 4
  %198 = sext i32 %197 to i64
  %199 = getelementptr inbounds [200 x i32], [200 x i32]* %5, i64 0, i64 %198
  %200 = load i32, i32* %199, align 4
  %201 = icmp eq i32 %200, 1
  br i1 %201, label %202, label %203

202:                                              ; preds = %196
  br label %207

203:                                              ; preds = %196
  br label %204

204:                                              ; preds = %203
  %205 = load i32, i32* %4, align 4
  %206 = add nsw i32 %205, 1
  store i32 %206, i32* %4, align 4
  br label %98

207:                                              ; preds = %202, %190, %175, %150, %125, %98
  %208 = load i32, i32* %3, align 4
  %209 = sext i32 %208 to i64
  %210 = getelementptr inbounds [200 x i32], [200 x i32]* %5, i64 0, i64 %209
  %211 = load i32, i32* %210, align 4
  %212 = icmp eq i32 %211, 0
  br i1 %212, label %213, label %215

213:                                              ; preds = %207
  %214 = call i32 (i8*, ...) @printf(i8* getelementptr inbounds ([3 x i8], [3 x i8]* @.str.1, i64 0, i64 0))
  br label %215

215:                                              ; preds = %213, %207
  br label %216

216:                                              ; preds = %215, %91, %78, %57
  %217 = load i32, i32* %3, align 4
  %218 = add nsw i32 %217, 1
  store i32 %218, i32* %3, align 4
  br label %28

219:                                              ; preds = %28
  ret i32 0
}

; Function Attrs: argmemonly nounwind willreturn
declare void @llvm.memset.p0i8.i64(i8* nocapture writeonly, i8, i64, i1 immarg) #1

declare dso_local i32 @gets(...) #2

; Function Attrs: nounwind readonly
declare dso_local i32 @atoi(i8*) #3

; Function Attrs: nounwind readonly
declare dso_local i64 @strlen(i8*) #3

declare dso_local i32 @printf(i8*, ...) #2


!llvm.module.flags = !{!0}
!llvm.ident = !{!1}

!0 = !{i32 1, !"wchar_size", i32 4}
!1 = !{!"clang version 10.0.0-4ubuntu1 "}
